(dp1
S'failed'
p2
(lp3
S'5'
asS'source_names'
p4
(lp5
S'tests'
p6
aS'tests/test_users.py:Testusers.test_email_exists'
p7
aS'tests/test_users.py'
p8
aS'tests/test_users.py:Testusers.test_registration_successful'
p9
aS'tests/test_users.py:Testusers.test_username_exists'
p10
aS'tests/test_users.py:Testusers.test_passwords_match'
p11
asS'ids'
p12
(dp13
I1
(S'/home/kosgei/Desktop/shoppinglist/tests/test_users.py'
S'test_users'
S'Testusers.test_email_exists'
tp14
sI2
(S'/home/kosgei/Desktop/shoppinglist/tests/test_users.py'
S'test_users'
S'Testusers.test_registration_successful'
tp15
sI3
(S'/home/kosgei/Desktop/shoppinglist/tests/test_users.py'
S'test_users'
S'Testusers.test_username_exists'
tp16
sI4
(S'/home/kosgei/Desktop/shoppinglist/tests/test_users.py'
S'test_users'
S'Testusers.test_passwords_match'
tp17
sI5
(S'/home/kosgei/Desktop/shoppinglist/tests/test_users.py'
S'test_users'
p18
S'Testusers.test_user_login'
tp19
sI6
(S'/home/kosgei/Desktop/shoppinglist/tests/test_users.py'
g18
S'Testusers.test_user_not_registered'
tp20
ss.